; ModuleID = '52/1224.c'
source_filename = "52/1224.c"
target datalayout = "e-m:e-p270:32:32-p271:32:32-p272:64:64-i64:64-f80:128-n8:16:32:64-S128"
target triple = "x86_64-pc-linux-gnu"

@.str = private unnamed_addr constant [6 x i8] c"%d %d\00", align 1
@.str.1 = private unnamed_addr constant [3 x i8] c"%d\00", align 1
@.str.2 = private unnamed_addr constant [4 x i8] c" %d\00", align 1

; Function Attrs: noinline nounwind uwtable
define dso_local void @main() #0 {
  %1 = alloca [200 x i32], align 16
  %2 = alloca i32, align 4
  %3 = alloca i32, align 4
  %4 = alloca i32, align 4
  %5 = alloca i32*, align 8
  %6 = call i32 (i8*, ...) @__isoc99_scanf(i8* getelementptr inbounds ([6 x i8], [6 x i8]* @.str, i64 0, i64 0), i32* %2, i32* %3)
  store i32 0, i32* %4, align 4
  br label %7

7:                                                ; preds = %16, %0
  %8 = load i32, i32* %4, align 4
  %9 = load i32, i32* %2, align 4
  %10 = icmp slt i32 %8, %9
  br i1 %10, label %11, label %19

11:                                               ; preds = %7
  %12 = load i32, i32* %4, align 4
  %13 = sext i32 %12 to i64
  %14 = getelementptr inbounds [200 x i32], [200 x i32]* %1, i64 0, i64 %13
  %15 = call i32 (i8*, ...) @__isoc99_scanf(i8* getelementptr inbounds ([3 x i8], [3 x i8]* @.str.1, i64 0, i64 0), i32* %14)
  br label %16

16:                                               ; preds = %11
  %17 = load i32, i32* %4, align 4
  %18 = add nsw i32 %17, 1
  store i32 %18, i32* %4, align 4
  br label %7

19:                                               ; preds = %7
  %20 = load i32, i32* %2, align 4
  store i32 %20, i32* %4, align 4
  br label %21

21:                                               ; preds = %43, %19
  %22 = load i32, i32* %4, align 4
  %23 = load i32, i32* %2, align 4
  %24 = load i32, i32* %2, align 4
  %25 = add nsw i32 %23, %24
  %26 = load i32, i32* %3, align 4
  %27 = sub nsw i32 %25, %26
  %28 = icmp sle i32 %22, %27
  br i1 %28, label %29, label %46

29:                                               ; preds = %21
  %30 = getelementptr inbounds [200 x i32], [200 x i32]* %1, i64 0, i64 0
  %31 = load i32, i32* %4, align 4
  %32 = sext i32 %31 to i64
  %33 = getelementptr inbounds i32, i32* %30, i64 %32
  %34 = load i32, i32* %2, align 4
  %35 = sext i32 %34 to i64
  %36 = sub i64 0, %35
  %37 = getelementptr inbounds i32, i32* %33, i64 %36
  %38 = load i32, i32* %37, align 4
  %39 = getelementptr inbounds [200 x i32], [200 x i32]* %1, i64 0, i64 0
  %40 = load i32, i32* %4, align 4
  %41 = sext i32 %40 to i64
  %42 = getelementptr inbounds i32, i32* %39, i64 %41
  store i32 %38, i32* %42, align 4
  br label %43

43:                                               ; preds = %29
  %44 = load i32, i32* %4, align 4
  %45 = add nsw i32 %44, 1
  store i32 %45, i32* %4, align 4
  br label %21

46:                                               ; preds = %21
  %47 = getelementptr inbounds [200 x i32], [200 x i32]* %1, i64 0, i64 0
  %48 = load i32, i32* %2, align 4
  %49 = sext i32 %48 to i64
  %50 = getelementptr inbounds i32, i32* %47, i64 %49
  %51 = load i32, i32* %3, align 4
  %52 = sext i32 %51 to i64
  %53 = sub i64 0, %52
  %54 = getelementptr inbounds i32, i32* %50, i64 %53
  store i32* %54, i32** %5, align 8
  %55 = load i32*, i32** %5, align 8
  %56 = load i32, i32* %55, align 4
  %57 = call i32 (i8*, ...) @printf(i8* getelementptr inbounds ([3 x i8], [3 x i8]* @.str.1, i64 0, i64 0), i32 %56)
  store i32 0, i32* %4, align 4
  %58 = load i32*, i32** %5, align 8
  %59 = getelementptr inbounds i32, i32* %58, i32 1
  store i32* %59, i32** %5, align 8
  br label %60

60:                                               ; preds = %69, %46
  %61 = load i32, i32* %4, align 4
  %62 = load i32, i32* %2, align 4
  %63 = sub nsw i32 %62, 1
  %64 = icmp slt i32 %61, %63
  br i1 %64, label %65, label %74

65:                                               ; preds = %60
  %66 = load i32*, i32** %5, align 8
  %67 = load i32, i32* %66, align 4
  %68 = call i32 (i8*, ...) @printf(i8* getelementptr inbounds ([4 x i8], [4 x i8]* @.str.2, i64 0, i64 0), i32 %67)
  br label %69

69:                                               ; preds = %65
  %70 = load i32, i32* %4, align 4
  %71 = add nsw i32 %70, 1
  store i32 %71, i32* %4, align 4
  %72 = load i32*, i32** %5, align 8
  %73 = getelementptr inbounds i32, i32* %72, i32 1
  store i32* %73, i32** %5, align 8
  br label %60

74:                                               ; preds = %60
  ret void
}

declare dso_local i32 @__isoc99_scanf(i8*, ...) #1

declare dso_local i32 @printf(i8*, ...) #1


!llvm.module.flags = !{!0}
!llvm.ident = !{!1}

!0 = !{i32 1, !"wchar_size", i32 4}
!1 = !{!"clang version 10.0.0-4ubuntu1 "}
